target datalayout = "e-m:e-p270:32:32-p271:32:32-p272:64:64-i64:64-i128:128-f80:128-n8:16:32:64-S128"
target triple = "x86_64-pc-linux-gnu"

%struct.t_fileio = type { ptr, i8, i8, i8, %"class.std::filesystem::__cxx11::path", ptr, i32, i32, ptr, ptr, %struct.tMPI_Lock }
%"class.std::filesystem::__cxx11::path" = type { %"class.std::__cxx11::basic_string", %"struct.std::filesystem::__cxx11::path::_List" }
%"class.std::__cxx11::basic_string" = type { %"struct.std::__cxx11::basic_string<char>::_Alloc_hider", i64, %union.anon }
%"struct.std::__cxx11::basic_string<char>::_Alloc_hider" = type { ptr }
%union.anon = type { i64, [8 x i8] }
%"struct.std::filesystem::__cxx11::path::_List" = type { %"class.std::unique_ptr" }
%"class.std::unique_ptr" = type { %"struct.std::__uniq_ptr_data" }
%"struct.std::__uniq_ptr_data" = type { %"class.std::__uniq_ptr_impl" }
%"class.std::__uniq_ptr_impl" = type { %"class.std::tuple" }
%"class.std::tuple" = type { %"struct.std::_Tuple_impl" }
%"struct.std::_Tuple_impl" = type { %"struct.std::_Head_base.1" }
%"struct.std::_Head_base.1" = type { ptr }
%struct.tMPI_Lock = type { %struct.tMPI_Spinlock }
%struct.tMPI_Spinlock = type { i32, [60 x i8] }

; Function Attrs: mustprogress uwtable
define void @_Z14gmx_fio_unlockP8t_fileio(ptr noundef %0) #0 {
  %2 = alloca ptr, align 8
  store ptr %0, ptr %2, align 8, !tbaa !4
  %3 = load ptr, ptr %2, align 8, !tbaa !4
  %4 = getelementptr inbounds nuw %struct.t_fileio, ptr %3, i32 0, i32 10
  call void @_Z16tMPI_Lock_unlockP9tMPI_Lock(ptr noundef %4)
  ret void
}

; Function Attrs: mustprogress uwtable
define internal noundef i32 @_ZL17gmx_fio_int_fsyncP8t_fileio(ptr noundef %0) #0 {
  %2 = alloca ptr, align 8
  %3 = alloca i32, align 4
  store ptr %0, ptr %2, align 8, !tbaa !4
  call void @llvm.lifetime.start.p0(i64 4, ptr %3) #17
  store i32 0, ptr %3, align 4, !tbaa !54
  %4 = load ptr, ptr %2, align 8, !tbaa !4
  %5 = getelementptr inbounds nuw %struct.t_fileio, ptr %4, i32 0, i32 0
  %6 = load ptr, ptr %5, align 8, !tbaa !14
  %7 = icmp ne ptr %6, null
  br i1 %7, label %8, label %13

8:                                                ; preds = %1
  %9 = load ptr, ptr %2, align 8, !tbaa !4
  %10 = getelementptr inbounds nuw %struct.t_fileio, ptr %9, i32 0, i32 0
  %11 = load ptr, ptr %10, align 8, !tbaa !14
  %12 = call noundef i32 @_Z9gmx_fsyncP8_IO_FILE(ptr noundef %11)
  store i32 %12, ptr %3, align 4, !tbaa !54
  br label %13

13:                                               ; preds = %8, %1
  %14 = load i32, ptr %3, align 4, !tbaa !54
  call void @llvm.lifetime.end.p0(i64 4, ptr %3) #17
  ret i32 %14
}

; Function Attrs: mustprogress uwtable
define void @_Z12gmx_fio_lockP8t_fileio(ptr noundef %0) #0 {
  %2 = alloca ptr, align 8
  store ptr %0, ptr %2, align 8, !tbaa !4
  %3 = load ptr, ptr %2, align 8, !tbaa !4
  %4 = getelementptr inbounds nuw %struct.t_fileio, ptr %3, i32 0, i32 10
  call void @_Z14tMPI_Lock_lockP9tMPI_Lock(ptr noundef %4)
  ret void
}

; Function Attrs: mustprogress uwtable
define noundef i32 @_Z13gmx_fio_fsyncP8t_fileio(ptr noundef %0) #0 {
  %2 = alloca ptr, align 8
  %3 = alloca i32, align 4
  store ptr %0, ptr %2, align 8, !tbaa !4
  call void @llvm.lifetime.start.p0(i64 4, ptr %3) #17
  %4 = load ptr, ptr %2, align 8, !tbaa !4
  call void @_Z12gmx_fio_lockP8t_fileio(ptr noundef %4)
  %5 = load ptr, ptr %2, align 8, !tbaa !4
  %6 = call noundef i32 @_ZL17gmx_fio_int_fsyncP8t_fileio(ptr noundef %5)
  store i32 %6, ptr %3, align 4, !tbaa !54
  %7 = load ptr, ptr %2, align 8, !tbaa !4
  call void @_Z14gmx_fio_unlockP8t_fileio(ptr noundef %7)
  %8 = load i32, ptr %3, align 4, !tbaa !54
  call void @llvm.lifetime.end.p0(i64 4, ptr %3) #17
  ret i32 %8
}